; ModuleID = '37/393.c'
source_filename = "37/393.c"
target datalayout = "e-m:e-p270:32:32-p271:32:32-p272:64:64-i64:64-f80:128-n8:16:32:64-S128"
target triple = "x86_64-pc-linux-gnu"

@.str = private unnamed_addr constant [4 x i8] c"%d\0A\00", align 1
@.str.1 = private unnamed_addr constant [4 x i8] c"%c\0A\00", align 1
@.str.2 = private unnamed_addr constant [4 x i8] c"no\0A\00", align 1

; Function Attrs: noinline nounwind uwtable
define dso_local i32 @main() #0 {
  %1 = alloca i32, align 4
  %2 = alloca i32, align 4
  %3 = alloca i32, align 4
  %4 = alloca i32, align 4
  %5 = alloca i32, align 4
  %6 = alloca i32, align 4
  %7 = alloca [26 x i32], align 16
  %8 = alloca i32*, align 8
  %9 = alloca [100001 x i8], align 16
  %10 = alloca i8*, align 8
  store i32 0, i32* %1, align 4
  %11 = bitcast [26 x i32]* %7 to i8*
  call void @llvm.memset.p0i8.i64(i8* align 16 %11, i8 0, i64 104, i1 false)
  %12 = call i32 (i8*, ...) @__isoc99_scanf(i8* getelementptr inbounds ([4 x i8], [4 x i8]* @.str, i64 0, i64 0), i32* %4)
  store i32 0, i32* %2, align 4
  br label %13

13:                                               ; preds = %108, %0
  %14 = load i32, i32* %2, align 4
  %15 = load i32, i32* %4, align 4
  %16 = icmp slt i32 %14, %15
  br i1 %16, label %17, label %111

17:                                               ; preds = %13
  %18 = getelementptr inbounds [100001 x i8], [100001 x i8]* %9, i64 0, i64 0
  %19 = call i32 (i8*, ...) bitcast (i32 (...)* @gets to i32 (i8*, ...)*)(i8* %18)
  %20 = getelementptr inbounds [26 x i32], [26 x i32]* %7, i64 0, i64 0
  store i32* %20, i32** %8, align 8
  store i32 0, i32* %3, align 4
  br label %21

21:                                               ; preds = %29, %17
  %22 = load i32, i32* %3, align 4
  %23 = icmp slt i32 %22, 26
  br i1 %23, label %24, label %32

24:                                               ; preds = %21
  %25 = load i32*, i32** %8, align 8
  %26 = load i32, i32* %3, align 4
  %27 = sext i32 %26 to i64
  %28 = getelementptr inbounds i32, i32* %25, i64 %27
  store i32 0, i32* %28, align 4
  br label %29

29:                                               ; preds = %24
  %30 = load i32, i32* %3, align 4
  %31 = add nsw i32 %30, 1
  store i32 %31, i32* %3, align 4
  br label %21

32:                                               ; preds = %21
  store i32 0, i32* %3, align 4
  %33 = getelementptr inbounds [100001 x i8], [100001 x i8]* %9, i64 0, i64 0
  store i8* %33, i8** %10, align 8
  br label %34

34:                                               ; preds = %42, %32
  %35 = load i8*, i8** %10, align 8
  %36 = load i32, i32* %3, align 4
  %37 = sext i32 %36 to i64
  %38 = getelementptr inbounds i8, i8* %35, i64 %37
  %39 = load i8, i8* %38, align 1
  %40 = sext i8 %39 to i32
  %41 = icmp ne i32 %40, 0
  br i1 %41, label %42, label %69

42:                                               ; preds = %34
  %43 = load i32*, i32** %8, align 8
  %44 = load i8*, i8** %10, align 8
  %45 = load i32, i32* %3, align 4
  %46 = sext i32 %45 to i64
  %47 = getelementptr inbounds i8, i8* %44, i64 %46
  %48 = load i8, i8* %47, align 1
  %49 = sext i8 %48 to i32
  %50 = sext i32 %49 to i64
  %51 = getelementptr inbounds i32, i32* %43, i64 %50
  %52 = getelementptr inbounds i32, i32* %51, i64 -97
  %53 = load i32, i32* %52, align 4
  store i32 %53, i32* %6, align 4
  %54 = load i32, i32* %6, align 4
  %55 = add nsw i32 %54, 1
  store i32 %55, i32* %6, align 4
  %56 = load i32, i32* %6, align 4
  %57 = load i32*, i32** %8, align 8
  %58 = load i8*, i8** %10, align 8
  %59 = load i32, i32* %3, align 4
  %60 = sext i32 %59 to i64
  %61 = getelementptr inbounds i8, i8* %58, i64 %60
  %62 = load i8, i8* %61, align 1
  %63 = sext i8 %62 to i32
  %64 = sext i32 %63 to i64
  %65 = getelementptr inbounds i32, i32* %57, i64 %64
  %66 = getelementptr inbounds i32, i32* %65, i64 -97
  store i32 %56, i32* %66, align 4
  %67 = load i32, i32* %3, align 4
  %68 = add nsw i32 %67, 1
  store i32 %68, i32* %3, align 4
  br label %34

69:                                               ; preds = %34
  store i32 0, i32* %3, align 4
  store i32 0, i32* %5, align 4
  br label %70

70:                                               ; preds = %99, %69
  %71 = load i8*, i8** %10, align 8
  %72 = load i32, i32* %3, align 4
  %73 = sext i32 %72 to i64
  %74 = getelementptr inbounds i8, i8* %71, i64 %73
  %75 = load i8, i8* %74, align 1
  %76 = sext i8 %75 to i32
  %77 = icmp ne i32 %76, 0
  br i1 %77, label %78, label %102

78:                                               ; preds = %70
  %79 = load i32*, i32** %8, align 8
  %80 = load i8*, i8** %10, align 8
  %81 = load i32, i32* %3, align 4
  %82 = sext i32 %81 to i64
  %83 = getelementptr inbounds i8, i8* %80, i64 %82
  %84 = load i8, i8* %83, align 1
  %85 = sext i8 %84 to i32
  %86 = sext i32 %85 to i64
  %87 = getelementptr inbounds i32, i32* %79, i64 %86
  %88 = getelementptr inbounds i32, i32* %87, i64 -97
  %89 = load i32, i32* %88, align 4
  %90 = icmp eq i32 %89, 1
  br i1 %90, label %91, label %99

91:                                               ; preds = %78
  %92 = load i8*, i8** %10, align 8
  %93 = load i32, i32* %3, align 4
  %94 = sext i32 %93 to i64
  %95 = getelementptr inbounds i8, i8* %92, i64 %94
  %96 = load i8, i8* %95, align 1
  %97 = sext i8 %96 to i32
  %98 = call i32 (i8*, ...) @printf(i8* getelementptr inbounds ([4 x i8], [4 x i8]* @.str.1, i64 0, i64 0), i32 %97)
  store i32 1, i32* %5, align 4
  br label %102

99:                                               ; preds = %78
  %100 = load i32, i32* %3, align 4
  %101 = add nsw i32 %100, 1
  store i32 %101, i32* %3, align 4
  br label %70

102:                                              ; preds = %91, %70
  %103 = load i32, i32* %5, align 4
  %104 = icmp eq i32 %103, 0
  br i1 %104, label %105, label %107

105:                                              ; preds = %102
  %106 = call i32 (i8*, ...) @printf(i8* getelementptr inbounds ([4 x i8], [4 x i8]* @.str.2, i64 0, i64 0))
  br label %107

107:                                              ; preds = %105, %102
  br label %108

108:                                              ; preds = %107
  %109 = load i32, i32* %2, align 4
  %110 = add nsw i32 %109, 1
  store i32 %110, i32* %2, align 4
  br label %13

111:                                              ; preds = %13
  ret i32 0
}

; Function Attrs: argmemonly nounwind willreturn
declare void @llvm.memset.p0i8.i64(i8* nocapture writeonly, i8, i64, i1 immarg) #1

declare dso_local i32 @__isoc99_scanf(i8*, ...) #2

declare dso_local i32 @gets(...) #2

declare dso_local i32 @printf(i8*, ...) #2


!llvm.module.flags = !{!0}
!llvm.ident = !{!1}

!0 = !{i32 1, !"wchar_size", i32 4}
!1 = !{!"clang version 10.0.0-4ubuntu1 "}
