; ModuleID = 'source-C-CXX/36/393.c'
source_filename = "source-C-CXX/36/393.c"
target datalayout = "e-m:e-p270:32:32-p271:32:32-p272:64:64-i64:64-f80:128-n8:16:32:64-S128"
target triple = "x86_64-pc-linux-gnu"

@.str = private unnamed_addr constant [4 x i8] c"%d\0A\00", align 1
@.str.1 = private unnamed_addr constant [4 x i8] c"%c\0A\00", align 1
@str = private unnamed_addr constant [3 x i8] c"no\00", align 1

; Function Attrs: nounwind sspstrong uwtable
define dso_local i32 @main() local_unnamed_addr #0 {
  %1 = alloca i32, align 4
  %2 = alloca [26 x i32], align 16
  %3 = bitcast [26 x i32]* %2 to i8*
  %4 = alloca [100001 x i8], align 16
  %5 = bitcast i32* %1 to i8*
  call void @llvm.lifetime.start.p0i8(i64 4, i8* nonnull %5) #6
  call void @llvm.lifetime.start.p0i8(i64 104, i8* nonnull %3) #6
  %6 = getelementptr inbounds [100001 x i8], [100001 x i8]* %4, i64 0, i64 0
  call void @llvm.lifetime.start.p0i8(i64 100001, i8* nonnull %6) #6
  %7 = call i32 (i8*, ...) @__isoc99_scanf(i8* getelementptr inbounds ([4 x i8], [4 x i8]* @.str, i64 0, i64 0), i32* nonnull %1)
  %8 = load i32, i32* %1, align 4, !tbaa !5
  %9 = icmp sgt i32 %8, 0
  br i1 %9, label %10, label %50

10:                                               ; preds = %0, %46
  %11 = phi i32 [ %47, %46 ], [ 0, %0 ]
  %12 = call i32 (i8*, ...) bitcast (i32 (...)* @gets to i32 (i8*, ...)*)(i8* nonnull %6) #6
  call void @llvm.memset.p0i8.i64(i8* noundef nonnull align 16 dereferenceable(104) %3, i8 0, i64 104, i1 false)
  %13 = load i8, i8* %6, align 16, !tbaa !9
  %14 = icmp eq i8 %13, 0
  br i1 %14, label %44, label %16

15:                                               ; preds = %16
  br i1 %14, label %44, label %32

16:                                               ; preds = %10, %16
  %17 = phi i64 [ %24, %16 ], [ 0, %10 ]
  %18 = phi i8 [ %26, %16 ], [ %13, %10 ]
  %19 = sext i8 %18 to i64
  %20 = getelementptr inbounds [26 x i32], [26 x i32]* %2, i64 0, i64 %19
  %21 = getelementptr inbounds i32, i32* %20, i64 -97
  %22 = load i32, i32* %21, align 4, !tbaa !5
  %23 = add nsw i32 %22, 1
  store i32 %23, i32* %21, align 4, !tbaa !5
  %24 = add nuw nsw i64 %17, 1
  %25 = getelementptr inbounds [100001 x i8], [100001 x i8]* %4, i64 0, i64 %24
  %26 = load i8, i8* %25, align 1, !tbaa !9
  %27 = icmp eq i8 %26, 0
  br i1 %27, label %15, label %16, !llvm.loop !10

28:                                               ; preds = %32
  %29 = getelementptr inbounds [100001 x i8], [100001 x i8]* %4, i64 0, i64 %40
  %30 = load i8, i8* %29, align 1, !tbaa !9
  %31 = icmp eq i8 %30, 0
  br i1 %31, label %44, label %32, !llvm.loop !12

32:                                               ; preds = %15, %28
  %33 = phi i64 [ %40, %28 ], [ 0, %15 ]
  %34 = phi i8 [ %30, %28 ], [ %13, %15 ]
  %35 = sext i8 %34 to i64
  %36 = getelementptr inbounds [26 x i32], [26 x i32]* %2, i64 0, i64 %35
  %37 = getelementptr inbounds i32, i32* %36, i64 -97
  %38 = load i32, i32* %37, align 4, !tbaa !5
  %39 = icmp eq i32 %38, 1
  %40 = add nuw i64 %33, 1
  br i1 %39, label %41, label %28

41:                                               ; preds = %32
  %42 = sext i8 %34 to i32
  %43 = call i32 (i8*, ...) @printf(i8* nonnull dereferenceable(1) getelementptr inbounds ([4 x i8], [4 x i8]* @.str.1, i64 0, i64 0), i32 %42)
  br label %46

44:                                               ; preds = %28, %10, %15
  %45 = call i32 @puts(i8* nonnull dereferenceable(1) getelementptr inbounds ([3 x i8], [3 x i8]* @str, i64 0, i64 0))
  br label %46

46:                                               ; preds = %41, %44
  %47 = add nuw nsw i32 %11, 1
  %48 = load i32, i32* %1, align 4, !tbaa !5
  %49 = icmp slt i32 %47, %48
  br i1 %49, label %10, label %50, !llvm.loop !13

50:                                               ; preds = %46, %0
  call void @llvm.lifetime.end.p0i8(i64 100001, i8* nonnull %6) #6
  call void @llvm.lifetime.end.p0i8(i64 104, i8* nonnull %3) #6
  call void @llvm.lifetime.end.p0i8(i64 4, i8* nonnull %5) #6
  ret i32 0
}

; Function Attrs: argmemonly mustprogress nofree nosync nounwind willreturn
declare void @llvm.lifetime.start.p0i8(i64 immarg, i8* nocapture) #1

; Function Attrs: argmemonly mustprogress nofree nounwind willreturn writeonly
declare void @llvm.memset.p0i8.i64(i8* nocapture writeonly, i8, i64, i1 immarg) #2

; Function Attrs: nofree nounwind
declare noundef i32 @__isoc99_scanf(i8* nocapture noundef readonly, ...) local_unnamed_addr #3

declare i32 @gets(...) local_unnamed_addr #4

; Function Attrs: nofree nounwind
declare noundef i32 @printf(i8* nocapture noundef readonly, ...) local_unnamed_addr #3

; Function Attrs: argmemonly mustprogress nofree nosync nounwind willreturn
declare void @llvm.lifetime.end.p0i8(i64 immarg, i8* nocapture) #1

; Function Attrs: nofree nounwind
declare noundef i32 @puts(i8* nocapture noundef readonly) local_unnamed_addr #5


!llvm.module.flags = !{!0, !1, !2, !3}
!llvm.ident = !{!4}

!0 = !{i32 1, !"wchar_size", i32 4}
!1 = !{i32 7, !"PIC Level", i32 2}
!2 = !{i32 7, !"PIE Level", i32 2}
!3 = !{i32 7, !"uwtable", i32 1}
!4 = !{!"clang version 13.0.0"}
!5 = !{!6, !6, i64 0}
!6 = !{!"int", !7, i64 0}
!7 = !{!"omnipotent char", !8, i64 0}
!8 = !{!"Simple C/C++ TBAA"}
!9 = !{!7, !7, i64 0}
!10 = distinct !{!10, !11}
!11 = !{!"llvm.loop.mustprogress"}
!12 = distinct !{!12, !11}
!13 = distinct !{!13, !11}
